; Function Attrs: mustprogress nofree norecurse nosync nounwind memory(readwrite, inaccessiblemem: none) uwtable
define hidden void @_ZN17substitution_tree15reset_registersEj(ptr noundef nonnull readonly align 8 captures(none) dereferenceable(136) %0, i32 noundef %1) local_unnamed_addr #7 align 2 {
  %3 = getelementptr inbounds nuw i8, ptr %0, i64 72
  %4 = load ptr, ptr %3, align 8, !tbaa !38
  %5 = zext i32 %1 to i64
  %6 = getelementptr inbounds nuw i32, ptr %4, i64 %5
  %7 = icmp eq ptr %4, null
  br i1 %7, label %_ZN6vectorIjLb0EjE3endEv.exit, label %8

8:                                                ; preds = %2
  %9 = getelementptr inbounds i8, ptr %4, i64 -4
  %10 = load i32, ptr %9, align 4, !tbaa !33
  %11 = zext i32 %10 to i64
  br label %_ZN6vectorIjLb0EjE3endEv.exit

_ZN6vectorIjLb0EjE3endEv.exit:                    ; preds = %2, %8
  %.0.i.i = phi i64 [ %11, %8 ], [ 0, %2 ]
  %12 = getelementptr inbounds nuw i32, ptr %4, i64 %.0.i.i
  %.not6 = icmp samesign eq i64 %.0.i.i, %5
  br i1 %.not6, label %._crit_edge, label %.lr.ph

.lr.ph:                                           ; preds = %_ZN6vectorIjLb0EjE3endEv.exit
  %13 = getelementptr inbounds nuw i8, ptr %0, i64 24
  %14 = load ptr, ptr %13, align 8, !tbaa !39
  br label %15

15:                                               ; preds = %.lr.ph, %15
  %.07 = phi ptr [ %6, %.lr.ph ], [ %19, %15 ]
  %16 = load i32, ptr %.07, align 4, !tbaa !33
  %17 = zext i32 %16 to i64
  %18 = getelementptr inbounds nuw ptr, ptr %14, i64 %17
  store ptr null, ptr %18, align 8, !tbaa !40
  %19 = getelementptr inbounds nuw i8, ptr %.07, i64 4
  %.not = icmp eq ptr %19, %12
  br i1 %.not, label %._crit_edge, label %15, !llvm.loop !71

._crit_edge:                                      ; preds = %15, %_ZN6vectorIjLb0EjE3endEv.exit
  br i1 %7, label %_ZN6vectorIjLb0EjE6shrinkEj.exit, label %20

20:                                               ; preds = %._crit_edge
  %21 = getelementptr inbounds i8, ptr %4, i64 -4
  store i32 %1, ptr %21, align 4, !tbaa !33
  br label %_ZN6vectorIjLb0EjE6shrinkEj.exit

_ZN6vectorIjLb0EjE6shrinkEj.exit:                 ; preds = %._crit_edge, %20
  ret void
}